target datalayout = "e-m:e-p270:32:32-p271:32:32-p272:64:64-i64:64-i128:128-f80:128-n8:16:32:64-S128"
target triple = "x86_64-pc-linux-gnu"

%struct.formnode = type { i16, i16, i16, i32, i32, i32, i32, i16, i16, i16, i32, ptr, ptr, ptr, ptr, ptr, ptr, ptr, ptr, ptr, ptr, ptr }
%struct.fieldnode = type { i16, i16, i16, i16, i16, i32, i32, i32, i32, i16, i16, i16, i16, i32, i32, i32, i32, ptr, ptr, ptr, ptr, ptr, ptr, ptr, ptr }
%struct._PAGE = type { i16, i16, i16, i16 }

; Function Attrs: nounwind uwtable
define internal ptr @Previous_Field_On_Page(ptr noundef %0) #0 {
  %2 = alloca ptr, align 8
  %3 = alloca ptr, align 8
  %4 = alloca ptr, align 8
  %5 = alloca ptr, align 8
  %6 = alloca ptr, align 8
  store ptr %0, ptr %2, align 8, !tbaa !17
  call void @llvm.lifetime.start.p0(i64 8, ptr %3) #9
  %7 = load ptr, ptr %2, align 8, !tbaa !17
  %8 = getelementptr inbounds nuw %struct.fieldnode, ptr %7, i32 0, i32 20
  %9 = load ptr, ptr %8, align 8, !tbaa !46
  store ptr %9, ptr %3, align 8, !tbaa !4
  call void @llvm.lifetime.start.p0(i64 8, ptr %4) #9
  %10 = load ptr, ptr %3, align 8, !tbaa !4
  %11 = getelementptr inbounds nuw %struct.formnode, ptr %10, i32 0, i32 14
  %12 = load ptr, ptr %11, align 8, !tbaa !63
  %13 = load ptr, ptr %2, align 8, !tbaa !17
  %14 = getelementptr inbounds nuw %struct.fieldnode, ptr %13, i32 0, i32 12
  %15 = load i16, ptr %14, align 2, !tbaa !88
  %16 = sext i16 %15 to i64
  %17 = getelementptr inbounds ptr, ptr %12, i64 %16
  store ptr %17, ptr %4, align 8, !tbaa !87
  call void @llvm.lifetime.start.p0(i64 8, ptr %5) #9
  %18 = load ptr, ptr %3, align 8, !tbaa !4
  %19 = getelementptr inbounds nuw %struct.formnode, ptr %18, i32 0, i32 14
  %20 = load ptr, ptr %19, align 8, !tbaa !63
  %21 = load ptr, ptr %3, align 8, !tbaa !4
  %22 = getelementptr inbounds nuw %struct.formnode, ptr %21, i32 0, i32 16
  %23 = load ptr, ptr %22, align 8, !tbaa !84
  %24 = load ptr, ptr %3, align 8, !tbaa !4
  %25 = getelementptr inbounds nuw %struct.formnode, ptr %24, i32 0, i32 9
  %26 = load i16, ptr %25, align 4, !tbaa !49
  %27 = sext i16 %26 to i64
  %28 = getelementptr inbounds %struct._PAGE, ptr %23, i64 %27
  %29 = getelementptr inbounds nuw %struct._PAGE, ptr %28, i32 0, i32 0
  %30 = load i16, ptr %29, align 2, !tbaa !89
  %31 = sext i16 %30 to i64
  %32 = getelementptr inbounds ptr, ptr %20, i64 %31
  store ptr %32, ptr %5, align 8, !tbaa !87
  call void @llvm.lifetime.start.p0(i64 8, ptr %6) #9
  %33 = load ptr, ptr %3, align 8, !tbaa !4
  %34 = getelementptr inbounds nuw %struct.formnode, ptr %33, i32 0, i32 14
  %35 = load ptr, ptr %34, align 8, !tbaa !63
  %36 = load ptr, ptr %3, align 8, !tbaa !4
  %37 = getelementptr inbounds nuw %struct.formnode, ptr %36, i32 0, i32 16
  %38 = load ptr, ptr %37, align 8, !tbaa !84
  %39 = load ptr, ptr %3, align 8, !tbaa !4
  %40 = getelementptr inbounds nuw %struct.formnode, ptr %39, i32 0, i32 9
  %41 = load i16, ptr %40, align 4, !tbaa !49
  %42 = sext i16 %41 to i64
  %43 = getelementptr inbounds %struct._PAGE, ptr %38, i64 %42
  %44 = getelementptr inbounds nuw %struct._PAGE, ptr %43, i32 0, i32 1
  %45 = load i16, ptr %44, align 2, !tbaa !85
  %46 = sext i16 %45 to i64
  %47 = getelementptr inbounds ptr, ptr %35, i64 %46
  store ptr %47, ptr %6, align 8, !tbaa !87
  br label %48

48:                                               ; preds = %67, %1
  %49 = load ptr, ptr %4, align 8, !tbaa !87
  %50 = load ptr, ptr %5, align 8, !tbaa !87
  %51 = icmp eq ptr %49, %50
  br i1 %51, label %52, label %54

52:                                               ; preds = %48
  %53 = load ptr, ptr %6, align 8, !tbaa !87
  br label %57

54:                                               ; preds = %48
  %55 = load ptr, ptr %4, align 8, !tbaa !87
  %56 = getelementptr inbounds ptr, ptr %55, i64 -1
  br label %57

57:                                               ; preds = %54, %52
  %58 = phi ptr [ %53, %52 ], [ %56, %54 ]
  store ptr %58, ptr %4, align 8, !tbaa !87
  %59 = load ptr, ptr %4, align 8, !tbaa !87
  %60 = load ptr, ptr %59, align 8, !tbaa !17
  %61 = getelementptr inbounds nuw %struct.fieldnode, ptr %60, i32 0, i32 16
  %62 = load i32, ptr %61, align 8, !tbaa !23
  %63 = and i32 %62, 3
  %64 = icmp eq i32 %63, 3
  br i1 %64, label %65, label %66

65:                                               ; preds = %57
  br label %72

66:                                               ; preds = %57
  br label %67

67:                                               ; preds = %66
  %68 = load ptr, ptr %2, align 8, !tbaa !17
  %69 = load ptr, ptr %4, align 8, !tbaa !87
  %70 = load ptr, ptr %69, align 8, !tbaa !17
  %71 = icmp ne ptr %68, %70
  br i1 %71, label %48, label %72, !llvm.loop !119

72:                                               ; preds = %67, %65
  %73 = load ptr, ptr %4, align 8, !tbaa !87
  %74 = load ptr, ptr %73, align 8, !tbaa !17
  call void @llvm.lifetime.end.p0(i64 8, ptr %6) #9
  call void @llvm.lifetime.end.p0(i64 8, ptr %5) #9
  call void @llvm.lifetime.end.p0(i64 8, ptr %4) #9
  call void @llvm.lifetime.end.p0(i64 8, ptr %3) #9
  ret ptr %74
}

; Function Attrs: nounwind uwtable
define internal i32 @FN_Previous_Field(ptr noundef %0) #0 {
  %2 = alloca ptr, align 8
  store ptr %0, ptr %2, align 8, !tbaa !4
  %3 = load ptr, ptr %2, align 8, !tbaa !4
  %4 = load ptr, ptr %2, align 8, !tbaa !4
  %5 = getelementptr inbounds nuw %struct.formnode, ptr %4, i32 0, i32 15
  %6 = load ptr, ptr %5, align 8, !tbaa !16
  %7 = call ptr @Previous_Field_On_Page(ptr noundef %6)
  %8 = call i32 @_nc_Set_Current_Field(ptr noundef %3, ptr noundef %7)
  ret i32 %8
}