; Function Attrs: nounwind uwtable
define internal range(i32 -11, 1) i32 @FN_Previous_Field(ptr noundef %0) #0 {
  %2 = getelementptr inbounds nuw i8, ptr %0, i64 72
  %3 = load ptr, ptr %2, align 8, !tbaa !14
  %4 = getelementptr inbounds nuw i8, ptr %3, i64 80
  %5 = load ptr, ptr %4, align 8, !tbaa !44
  %6 = getelementptr inbounds nuw i8, ptr %5, i64 64
  %7 = load ptr, ptr %6, align 8, !tbaa !62
  %8 = getelementptr inbounds nuw i8, ptr %3, i64 34
  %9 = load i16, ptr %8, align 2, !tbaa !82
  %10 = sext i16 %9 to i64
  %11 = getelementptr inbounds ptr, ptr %7, i64 %10
  %12 = getelementptr inbounds nuw i8, ptr %5, i64 80
  %13 = load ptr, ptr %12, align 8, !tbaa !78
  %14 = getelementptr inbounds nuw i8, ptr %5, i64 28
  %15 = load i16, ptr %14, align 4, !tbaa !47
  %16 = sext i16 %15 to i64
  %17 = getelementptr inbounds %struct._PAGE, ptr %13, i64 %16
  %18 = load i16, ptr %17, align 2, !tbaa !83
  %19 = sext i16 %18 to i64
  %20 = getelementptr inbounds ptr, ptr %7, i64 %19
  %21 = getelementptr inbounds nuw i8, ptr %17, i64 2
  %22 = load i16, ptr %21, align 2, !tbaa !79
  %23 = sext i16 %22 to i64
  %24 = getelementptr inbounds ptr, ptr %7, i64 %23
  br label %25

25:                                               ; preds = %25, %1
  %.0.i = phi ptr [ %11, %1 ], [ %28, %25 ]
  %26 = icmp eq ptr %.0.i, %20
  %27 = getelementptr inbounds i8, ptr %.0.i, i64 -8
  %28 = select i1 %26, ptr %24, ptr %27
  %29 = load ptr, ptr %28, align 8, !tbaa !81
  %30 = getelementptr inbounds nuw i8, ptr %29, i64 48
  %31 = load i32, ptr %30, align 8, !tbaa !19
  %32 = and i32 %31, 3
  %33 = icmp eq i32 %32, 3
  %.not.i = icmp eq ptr %3, %29
  %or.cond.i = or i1 %.not.i, %33
  br i1 %or.cond.i, label %Previous_Field_On_Page.exit, label %25, !llvm.loop !109

Previous_Field_On_Page.exit:                      ; preds = %25
  %34 = tail call i32 @_nc_Set_Current_Field(ptr noundef %0, ptr noundef nonnull %29)
  ret i32 %34
}